target datalayout = "e-m:e-p270:32:32-p271:32:32-p272:64:64-i64:64-i128:128-f80:128-n8:16:32:64-S128"
target triple = "x86_64-pc-linux-gnu"

%"class.std::bitset" = type { %"struct.std::_Base_bitset" }
%"struct.std::_Base_bitset" = type { i64 }
%"class.pxrInternal_v0_24__pxrReserved__::SdfPath" = type { %"struct.pxrInternal_v0_24__pxrReserved__::Sdf_PathNodeHandleImpl", %"struct.pxrInternal_v0_24__pxrReserved__::Sdf_PathNodeHandleImpl.0" }
%"struct.pxrInternal_v0_24__pxrReserved__::Sdf_PathNodeHandleImpl" = type { %"struct.pxrInternal_v0_24__pxrReserved__::Sdf_Pool<pxrInternal_v0_24__pxrReserved__::Sdf_PathPrimTag, 24, 8>::Handle" }
%"struct.pxrInternal_v0_24__pxrReserved__::Sdf_Pool<pxrInternal_v0_24__pxrReserved__::Sdf_PathPrimTag, 24, 8>::Handle" = type { i32 }
%"struct.pxrInternal_v0_24__pxrReserved__::Sdf_PathNodeHandleImpl.0" = type { %"struct.pxrInternal_v0_24__pxrReserved__::Sdf_Pool<pxrInternal_v0_24__pxrReserved__::Sdf_PathPropTag, 24, 8>::Handle" }
%"struct.pxrInternal_v0_24__pxrReserved__::Sdf_Pool<pxrInternal_v0_24__pxrReserved__::Sdf_PathPropTag, 24, 8>::Handle" = type { i32 }
%"class.tbb::detail::d1::wait_context" = type { i64, %"struct.std::atomic.50" }
%"struct.std::atomic.50" = type { %"struct.std::__atomic_base.51" }
%"struct.std::__atomic_base.51" = type { i64 }
%"class.tbb::detail::d1::small_object_allocator" = type { ptr }
%"class.tbb::detail::d1::task" = type { ptr, %"class.tbb::detail::d1::task_traits", [6 x i64] }
%"class.tbb::detail::d1::task_traits" = type { i64 }
%"class.pxrInternal_v0_24__pxrReserved__::UsdPrimSubtreeIterator" = type { ptr, %"class.pxrInternal_v0_24__pxrReserved__::SdfPath", %"class.pxrInternal_v0_24__pxrReserved__::Usd_PrimFlagsPredicate" }
%"class.pxrInternal_v0_24__pxrReserved__::Usd_PrimFlagsPredicate" = type <{ %"class.std::bitset", %"class.std::bitset", i8, [7 x i8] }>
%"struct.tbb::detail::d2::forward_block_handling_task" = type { %"class.tbb::detail::d1::task", %"class.tbb::detail::d0::aligned_space", i64, %"class.tbb::detail::d1::wait_context", ptr, ptr, %"class.tbb::detail::d1::small_object_allocator", [16 x i8] }
%"class.tbb::detail::d0::aligned_space" = type { [512 x i8] }
%"struct.tbb::detail::d2::for_each_iteration_task" = type { %"class.tbb::detail::d1::task", %"class.pxrInternal_v0_24__pxrReserved__::UsdPrimSubtreeIterator", ptr, ptr, ptr }

; Function Attrs: mustprogress nounwind uwtable
define internal noundef ptr @_ZN3tbb6detail2d011punned_castIPNS0_2d223for_each_iteration_taskIN32pxrInternal_v0_24__pxrReserved__22UsdPrimSubtreeIteratorEZZNS5_12_GLOBAL__N_137_TargetingPropertyDependencyCollector4_RunERKNS5_8TfRefPtrINS5_8UsdStageEEEENKUlvE_clEvEUlRKNS5_7UsdPrimEE_SF_EEA512_KhEET_PT0_(ptr noundef %0) #1 {
  %2 = alloca ptr, align 8
  %3 = alloca i64, align 8
  store ptr %0, ptr %2, align 8
  %4 = load ptr, ptr %2, align 8
  %5 = ptrtoint ptr %4 to i64
  store i64 %5, ptr %3, align 8
  %6 = load i64, ptr %3, align 8
  %7 = inttoptr i64 %6 to ptr
  ret ptr %7
}

; Function Attrs: noreturn nounwind uwtable
define linkonce_odr hidden void @__clang_call_terminate(ptr noundef %0) #6 comdat {
  %2 = call ptr @__cxa_begin_catch(ptr %0) #11
  call void @_ZSt9terminatev() #14
  unreachable
}

; Function Attrs: mustprogress nounwind uwtable
define linkonce_odr void @_ZN3tbb6detail2d14taskD2Ev(ptr noundef nonnull align 64 dereferenceable(64) %0) unnamed_addr #1 comdat align 2 {
  %2 = alloca ptr, align 8
  store ptr %0, ptr %2, align 8
  ret void
}

; Function Attrs: mustprogress nounwind uwtable
define linkonce_odr void @_ZN3tbb6detail2d112wait_contextD2Ev(ptr noundef nonnull align 8 dereferenceable(16) %0) unnamed_addr #1 comdat align 2 {
  %2 = alloca ptr, align 8
  store ptr %0, ptr %2, align 8
  ret void
}

; Function Attrs: mustprogress uwtable
define internal noundef ptr @_ZNK3tbb6detail2d013aligned_spaceINS0_2d223for_each_iteration_taskIN32pxrInternal_v0_24__pxrReserved__22UsdPrimSubtreeIteratorEZZNS5_12_GLOBAL__N_137_TargetingPropertyDependencyCollector4_RunERKNS5_8TfRefPtrINS5_8UsdStageEEEENKUlvE_clEvEUlRKNS5_7UsdPrimEE_SF_EELm4EE5beginEv(ptr noundef nonnull align 64 dereferenceable(512) %0) #0 align 2 {
  %2 = alloca ptr, align 8
  store ptr %0, ptr %2, align 8
  %3 = load ptr, ptr %2, align 8
  %4 = getelementptr inbounds nuw %"class.tbb::detail::d0::aligned_space", ptr %3, i32 0, i32 0
  %5 = call noundef ptr @_ZN3tbb6detail2d011punned_castIPNS0_2d223for_each_iteration_taskIN32pxrInternal_v0_24__pxrReserved__22UsdPrimSubtreeIteratorEZZNS5_12_GLOBAL__N_137_TargetingPropertyDependencyCollector4_RunERKNS5_8TfRefPtrINS5_8UsdStageEEEENKUlvE_clEvEUlRKNS5_7UsdPrimEE_SF_EEA512_KhEET_PT0_(ptr noundef %4)
  ret ptr %5
}

; Function Attrs: mustprogress nounwind uwtable
define internal void @_ZN3tbb6detail2d227forward_block_handling_taskIN32pxrInternal_v0_24__pxrReserved__22UsdPrimSubtreeIteratorEZZNS3_12_GLOBAL__N_137_TargetingPropertyDependencyCollector4_RunERKNS3_8TfRefPtrINS3_8UsdStageEEEENKUlvE_clEvEUlRKNS3_7UsdPrimEE_SD_ED2Ev(ptr noundef nonnull align 64 dereferenceable(624) %0) unnamed_addr #1 align 2 personality ptr @__gxx_personality_v0 {
  %2 = alloca ptr, align 8
  %3 = alloca i64, align 8
  store ptr %0, ptr %2, align 8
  %4 = load ptr, ptr %2, align 8
  store ptr getelementptr inbounds inrange(-16, 32) ({ [6 x ptr] }, ptr @_ZTVN3tbb6detail2d227forward_block_handling_taskIN32pxrInternal_v0_24__pxrReserved__22UsdPrimSubtreeIteratorEZZNS3_12_GLOBAL__N_137_TargetingPropertyDependencyCollector4_RunERKNS3_8TfRefPtrINS3_8UsdStageEEEENKUlvE_clEvEUlRKNS3_7UsdPrimEE_SD_EE, i32 0, i32 0, i32 2), ptr %4, align 64
  store i64 0, ptr %3, align 8
  br label %5

5:                                                ; preds = %19, %1
  %6 = load i64, ptr %3, align 8
  %7 = getelementptr inbounds nuw %"struct.tbb::detail::d2::forward_block_handling_task", ptr %4, i32 0, i32 2
  %8 = load i64, ptr %7, align 64
  %9 = icmp ult i64 %6, %8
  br i1 %9, label %10, label %22

10:                                               ; preds = %5
  %11 = getelementptr inbounds nuw %"struct.tbb::detail::d2::forward_block_handling_task", ptr %4, i32 0, i32 1
  %12 = invoke noundef ptr @_ZNK3tbb6detail2d013aligned_spaceINS0_2d223for_each_iteration_taskIN32pxrInternal_v0_24__pxrReserved__22UsdPrimSubtreeIteratorEZZNS5_12_GLOBAL__N_137_TargetingPropertyDependencyCollector4_RunERKNS5_8TfRefPtrINS5_8UsdStageEEEENKUlvE_clEvEUlRKNS5_7UsdPrimEE_SF_EELm4EE5beginEv(ptr noundef nonnull align 64 dereferenceable(512) %11)
          to label %13 unwind label %24

13:                                               ; preds = %10
  %14 = load i64, ptr %3, align 8
  %15 = getelementptr inbounds %"struct.tbb::detail::d2::for_each_iteration_task", ptr %12, i64 %14
  %16 = load ptr, ptr %15, align 64
  %17 = getelementptr inbounds ptr, ptr %16, i64 0
  %18 = load ptr, ptr %17, align 8
  call void %18(ptr noundef nonnull align 64 dereferenceable(128) %15) #11
  br label %19

19:                                               ; preds = %13
  %20 = load i64, ptr %3, align 8
  %21 = add i64 %20, 1
  store i64 %21, ptr %3, align 8
  br label %5, !llvm.loop !43

22:                                               ; preds = %5
  %23 = getelementptr inbounds nuw %"struct.tbb::detail::d2::forward_block_handling_task", ptr %4, i32 0, i32 3
  call void @_ZN3tbb6detail2d112wait_contextD2Ev(ptr noundef nonnull align 8 dereferenceable(16) %23) #11
  call void @_ZN3tbb6detail2d14taskD2Ev(ptr noundef nonnull align 64 dereferenceable(64) %4) #11
  ret void

24:                                               ; preds = %10
  %25 = landingpad { ptr, i32 }
          catch ptr null
  %26 = extractvalue { ptr, i32 } %25, 0
  call void @__clang_call_terminate(ptr %26) #14
  unreachable
}

; Function Attrs: mustprogress nounwind uwtable
define internal void @_ZN3tbb6detail2d227forward_block_handling_taskIN32pxrInternal_v0_24__pxrReserved__22UsdPrimSubtreeIteratorEZZNS3_12_GLOBAL__N_137_TargetingPropertyDependencyCollector4_RunERKNS3_8TfRefPtrINS3_8UsdStageEEEENKUlvE_clEvEUlRKNS3_7UsdPrimEE_SD_ED0Ev(ptr noundef nonnull align 64 dereferenceable(624) %0) unnamed_addr #1 align 2 {
  %2 = alloca ptr, align 8
  store ptr %0, ptr %2, align 8
  %3 = load ptr, ptr %2, align 8
  call void @_ZN3tbb6detail2d227forward_block_handling_taskIN32pxrInternal_v0_24__pxrReserved__22UsdPrimSubtreeIteratorEZZNS3_12_GLOBAL__N_137_TargetingPropertyDependencyCollector4_RunERKNS3_8TfRefPtrINS3_8UsdStageEEEENKUlvE_clEvEUlRKNS3_7UsdPrimEE_SD_ED2Ev(ptr noundef nonnull align 64 dereferenceable(624) %3) #11
  call void @_ZdlPvmSt11align_val_t(ptr noundef %3, i64 noundef 640, i64 noundef 64) #16
  ret void
}