; Function Attrs: mustprogress nounwind uwtable
define internal void @_ZN3tbb6detail2d227forward_block_handling_taskIN32pxrInternal_v0_24__pxrReserved__22UsdPrimSubtreeIteratorEZZNS3_12_GLOBAL__N_137_TargetingPropertyDependencyCollector4_RunERKNS3_8TfRefPtrINS3_8UsdStageEEEENKUlvE_clEvEUlRKNS3_7UsdPrimEE_SD_ED0Ev(ptr noundef nonnull align 64 dereferenceable(624) initializes((0, 8)) %0) unnamed_addr #3 align 2 personality ptr @__gxx_personality_v0 {
  store ptr getelementptr inbounds nuw inrange(-16, 32) (i8, ptr @_ZTVN3tbb6detail2d227forward_block_handling_taskIN32pxrInternal_v0_24__pxrReserved__22UsdPrimSubtreeIteratorEZZNS3_12_GLOBAL__N_137_TargetingPropertyDependencyCollector4_RunERKNS3_8TfRefPtrINS3_8UsdStageEEEENKUlvE_clEvEUlRKNS3_7UsdPrimEE_SD_EE, i64 16), ptr %0, align 64
  %2 = getelementptr inbounds nuw i8, ptr %0, i64 576
  %3 = load i64, ptr %2, align 64
  %.not.i = icmp eq i64 %3, 0
  br i1 %.not.i, label %_ZN3tbb6detail2d227forward_block_handling_taskIN32pxrInternal_v0_24__pxrReserved__22UsdPrimSubtreeIteratorEZZNS3_12_GLOBAL__N_137_TargetingPropertyDependencyCollector4_RunERKNS3_8TfRefPtrINS3_8UsdStageEEEENKUlvE_clEvEUlRKNS3_7UsdPrimEE_SD_ED2Ev.exit, label %.lr.ph.i

.lr.ph.i:                                         ; preds = %1
  %4 = getelementptr inbounds nuw i8, ptr %0, i64 64
  br label %5

5:                                                ; preds = %5, %.lr.ph.i
  %.03.i = phi i64 [ 0, %.lr.ph.i ], [ %9, %5 ]
  %6 = getelementptr inbounds %"struct.tbb::detail::d2::for_each_iteration_task", ptr %4, i64 %.03.i
  %7 = load ptr, ptr %6, align 64
  %8 = load ptr, ptr %7, align 8
  tail call void %8(ptr noundef nonnull align 64 dereferenceable(128) %6) #13
  %9 = add nuw i64 %.03.i, 1
  %10 = load i64, ptr %2, align 64
  %11 = icmp ult i64 %9, %10
  br i1 %11, label %5, label %_ZN3tbb6detail2d227forward_block_handling_taskIN32pxrInternal_v0_24__pxrReserved__22UsdPrimSubtreeIteratorEZZNS3_12_GLOBAL__N_137_TargetingPropertyDependencyCollector4_RunERKNS3_8TfRefPtrINS3_8UsdStageEEEENKUlvE_clEvEUlRKNS3_7UsdPrimEE_SD_ED2Ev.exit, !llvm.loop !127

_ZN3tbb6detail2d227forward_block_handling_taskIN32pxrInternal_v0_24__pxrReserved__22UsdPrimSubtreeIteratorEZZNS3_12_GLOBAL__N_137_TargetingPropertyDependencyCollector4_RunERKNS3_8TfRefPtrINS3_8UsdStageEEEENKUlvE_clEvEUlRKNS3_7UsdPrimEE_SD_ED2Ev.exit: ; preds = %5, %1
  tail call void @_ZdlPvmSt11align_val_t(ptr noundef nonnull %0, i64 noundef 640, i64 noundef 64) #25
  ret void
}